target datalayout = "e-m:e-p270:32:32-p271:32:32-p272:64:64-i64:64-i128:128-f80:128-n8:16:32:64-S128"
target triple = "x86_64-pc-linux-gnu"

%struct._wmem_map_t = type { i32, i64, ptr, ptr, ptr, i32, i32, ptr, ptr }

; Function Attrs: null_pointer_is_valid sspstrong uwtable
define noalias ptr @wmem_map_new_autoreset(ptr noundef %0, ptr noundef %1, ptr noundef %2, ptr noundef %3) #0 {
  %5 = alloca ptr, align 8
  %6 = alloca ptr, align 8
  %7 = alloca ptr, align 8
  %8 = alloca ptr, align 8
  %9 = alloca ptr, align 8
  store ptr %0, ptr %5, align 8
  store ptr %1, ptr %6, align 8
  store ptr %2, ptr %7, align 8
  store ptr %3, ptr %8, align 8
  call void @llvm.lifetime.start.p0(i64 8, ptr %9) #8
  %10 = load ptr, ptr %5, align 8
  %11 = call noalias ptr @wmem_alloc(ptr noundef %10, i64 noundef 64) #9
  store ptr %11, ptr %9, align 8
  %12 = load ptr, ptr %7, align 8
  %13 = load ptr, ptr %9, align 8
  %14 = getelementptr inbounds nuw %struct._wmem_map_t, ptr %13, i32 0, i32 3
  store ptr %12, ptr %14, align 8
  %15 = load ptr, ptr %8, align 8
  %16 = load ptr, ptr %9, align 8
  %17 = getelementptr inbounds nuw %struct._wmem_map_t, ptr %16, i32 0, i32 4
  store ptr %15, ptr %17, align 8
  %18 = load ptr, ptr %5, align 8
  %19 = load ptr, ptr %9, align 8
  %20 = getelementptr inbounds nuw %struct._wmem_map_t, ptr %19, i32 0, i32 7
  store ptr %18, ptr %20, align 8
  %21 = load ptr, ptr %6, align 8
  %22 = load ptr, ptr %9, align 8
  %23 = getelementptr inbounds nuw %struct._wmem_map_t, ptr %22, i32 0, i32 8
  store ptr %21, ptr %23, align 8
  %24 = load ptr, ptr %9, align 8
  %25 = getelementptr inbounds nuw %struct._wmem_map_t, ptr %24, i32 0, i32 0
  store i32 0, ptr %25, align 8
  %26 = load ptr, ptr %9, align 8
  %27 = getelementptr inbounds nuw %struct._wmem_map_t, ptr %26, i32 0, i32 2
  store ptr null, ptr %27, align 8
  %28 = load ptr, ptr %5, align 8
  %29 = load ptr, ptr %9, align 8
  %30 = call i32 @wmem_register_callback(ptr noundef %28, ptr noundef @wmem_map_destroy_cb, ptr noundef %29)
  %31 = load ptr, ptr %9, align 8
  %32 = getelementptr inbounds nuw %struct._wmem_map_t, ptr %31, i32 0, i32 5
  store i32 %30, ptr %32, align 8
  %33 = load ptr, ptr %6, align 8
  %34 = load ptr, ptr %9, align 8
  %35 = call i32 @wmem_register_callback(ptr noundef %33, ptr noundef @wmem_map_reset_cb, ptr noundef %34)
  %36 = load ptr, ptr %9, align 8
  %37 = getelementptr inbounds nuw %struct._wmem_map_t, ptr %36, i32 0, i32 6
  store i32 %35, ptr %37, align 4
  %38 = load ptr, ptr %9, align 8
  call void @llvm.lifetime.end.p0(i64 8, ptr %9) #8
  ret ptr %38
}