; Function Attrs: null_pointer_is_valid sspstrong uwtable
define noalias noundef ptr @wmem_map_new_autoreset(ptr noundef %0, ptr noundef %1, ptr noundef %2, ptr noundef %3) local_unnamed_addr #0 {
  %5 = tail call noalias dereferenceable_or_null(64) ptr @wmem_alloc(ptr noundef %0, i64 noundef 64) #7
  %6 = getelementptr inbounds nuw i8, ptr %5, i64 24
  store ptr %2, ptr %6, align 8
  %7 = getelementptr inbounds nuw i8, ptr %5, i64 32
  store ptr %3, ptr %7, align 8
  %8 = getelementptr inbounds nuw i8, ptr %5, i64 48
  store ptr %0, ptr %8, align 8
  %9 = getelementptr inbounds nuw i8, ptr %5, i64 56
  store ptr %1, ptr %9, align 8
  store i32 0, ptr %5, align 8
  %10 = getelementptr inbounds nuw i8, ptr %5, i64 16
  store ptr null, ptr %10, align 8
  %11 = tail call i32 @wmem_register_callback(ptr noundef %0, ptr noundef nonnull @wmem_map_destroy_cb, ptr noundef %5)
  %12 = getelementptr inbounds nuw i8, ptr %5, i64 40
  store i32 %11, ptr %12, align 8
  %13 = tail call i32 @wmem_register_callback(ptr noundef %1, ptr noundef nonnull @wmem_map_reset_cb, ptr noundef %5)
  %14 = getelementptr inbounds nuw i8, ptr %5, i64 44
  store i32 %13, ptr %14, align 4
  ret ptr %5
}